Certificate:
    Data:
        Version: 3 (0x2)
        Serial Number: 1 (0x1)
        Signature Algorithm: sha256WithRSAEncryption
        Issuer: CN=web-platform-tests
        Validity
            Not Before: Jun 30 23:12:47 2016 GMT
            Not After : Jul 30 23:12:47 2016 GMT
        Subject: CN=web-platform-tests
        Subject Public Key Info:
            Public Key Algorithm: rsaEncryption
            RSA Public Key: (2048 bit)
                Modulus (2048 bit):
                    00:e0:e0:82:01:6d:e5:ba:80:26:2b:47:87:12:fa:
                    bb:1b:4a:09:9f:af:e7:8e:8c:0e:4d:bc:0b:f9:b5:
                    2b:33:0d:aa:cd:1c:c3:a5:ca:62:b5:57:0a:a4:64:
                    a5:1c:9a:f4:bb:f3:5f:e1:2d:a3:52:fe:6d:ce:fa:
                    3c:1b:9b:73:45:48:44:ca:5a:0e:5d:6c:9e:22:02:
                    12:97:39:f7:e9:b7:10:e3:1b:fa:5a:d5:7e:c4:57:
                    74:38:7e:2c:c6:cb:69:e2:fb:d1:a1:45:3f:5e:f0:
                    bb:47:25:6b:d5:ca:28:80:35:56:91:76:8b:ac:44:
                    7c:a1:90:b6:75:89:2e:05:fd:09:c7:bb:10:b6:30:
                    8b:37:4b:3c:d0:44:93:16:02:b9:37:cd:41:92:d4:
                    e6:87:51:d5:bc:45:a5:f3:4a:2f:9c:0c:b7:1f:cd:
                    be:6d:2e:9a:03:81:06:ab:ce:8e:73:5c:ad:72:1e:
                    1b:2e:5c:10:f5:52:11:6d:f8:99:8c:c9:a9:51:b2:
                    d8:21:80:c6:57:23:02:0b:91:9e:5b:64:cc:f4:f1:
                    88:64:1b:2a:58:f5:9c:06:bb:f8:7f:dc:ab:78:b5:
                    1d:51:5b:b2:31:a4:8d:67:04:28:20:80:23:00:47:
                    ff:c4:fd:73:98:82:8c:f0:76:d9:c8:ec:e9:4a:b4:
                    05:59
                Exponent: 65537 (0x10001)
        X509v3 extensions:
            X509v3 Basic Constraints: 
                CA:TRUE
            X509v3 Subject Key Identifier: 
                BD:0F:27:1D:53:34:AB:7B:C2:13:9B:4F:26:B2:E4:78:4B:2F:01:A4
            X509v3 Authority Key Identifier: 
                keyid:BD:0F:27:1D:53:34:AB:7B:C2:13:9B:4F:26:B2:E4:78:4B:2F:01:A4
                DirName:/CN=web-platform-tests
                serial:01

            X509v3 Key Usage: 
                Certificate Sign
            X509v3 Extended Key Usage: 
                TLS Web Server Authentication
    Signature Algorithm: sha256WithRSAEncryption
        1b:92:e7:fc:15:93:00:e4:45:ec:9c:6c:bf:89:63:63:a3:93:
        5a:7b:ce:5f:ab:aa:a0:8d:4e:58:8f:d0:80:fc:eb:bd:92:b3:
        ee:23:4c:37:27:96:ec:25:c5:16:fa:02:50:28:ae:65:67:23:
        98:16:a1:3f:38:fa:44:6c:63:76:3f:f6:5f:1f:a4:46:c0:28:
        cb:08:84:f8:91:1b:17:01:5b:f6:c0:b1:52:1f:71:8e:eb:ed:
        32:d8:39:97:d2:ee:b7:40:09:1b:ee:4c:99:fe:94:3d:6c:d3:
        00:06:8f:e9:03:7e:e8:c9:e9:2b:18:4b:81:c6:a3:94:87:57:
        2a:fd:23:bf:f4:86:66:3c:46:e1:ef:fb:a2:e3:8b:17:a7:d7:
        c5:37:f1:0a:84:66:39:d1:5c:5e:b1:6a:d1:10:8a:62:97:22:
        f5:ac:59:dc:cd:7f:8e:64:f4:cb:b0:28:30:f4:6c:b1:d6:9d:
        90:70:1e:64:5c:c3:c5:d2:21:55:77:98:4f:4f:ff:ec:21:11:
        eb:d9:46:66:58:51:79:b9:d7:11:bd:47:84:65:5d:72:4e:54:
        0e:47:f3:33:2c:96:1a:60:a0:ee:ce:65:b9:83:13:23:c6:96:
        6f:44:a5:d0:3e:4c:e3:21:76:6c:bc:96:47:52:da:c4:ea:b5:
        7f:14:a3:dd
-----BEGIN CERTIFICATE-----
MIIDTzCCAjegAwIBAgIBATANBgkqhkiG9w0BAQsFADAdMRswGQYDVQQDDBJ3ZWIt
cGxhdGZvcm0tdGVzdHMwHhcNMTYwNjMwMjMxMjQ3WhcNMTYwNzMwMjMxMjQ3WjAd
MRswGQYDVQQDDBJ3ZWItcGxhdGZvcm0tdGVzdHMwggEiMA0GCSqGSIb3DQEBAQUA
A4IBDwAwggEKAoIBAQDg4IIBbeW6gCYrR4cS+rsbSgmfr+eOjA5NvAv5tSszDarN
HMOlymK1VwqkZKUcmvS781/hLaNS/m3O+jwbm3NFSETKWg5dbJ4iAhKXOffptxDj
G/pa1X7EV3Q4fizGy2ni+9GhRT9e8LtHJWvVyiiANVaRdousRHyhkLZ1iS4F/QnH
uxC2MIs3SzzQRJMWArk3zUGS1OaHUdW8RaXzSi+cDLcfzb5tLpoDgQarzo5zXK1y
HhsuXBD1UhFt+JmMyalRstghgMZXIwILkZ5bZMz08YhkGypY9ZwGu/h/3Kt4tR1R
W7IxpI1nBCgggCMAR//E/XOYgozwdtnI7OlKtAVZAgMBAAGjgZkwgZYwDAYDVR0T
BAUwAwEB/zAdBgNVHQ4EFgQUvQ8nHVM0q3vCE5tPJrLkeEsvAaQwRQYDVR0jBD4w
PIAUvQ8nHVM0q3vCE5tPJrLkeEsvAaShIaQfMB0xGzAZBgNVBAMMEndlYi1wbGF0
Zm9ybS10ZXN0c4IBATALBgNVHQ8EBAMCAgQwEwYDVR0lBAwwCgYIKwYBBQUHAwEw
DQYJKoZIhvcNAQELBQADggEBABuS5/wVkwDkReycbL+JY2Ojk1p7zl+rqqCNTliP
0ID8672Ss+4jTDcnluwlxRb6AlAormVnI5gWoT84+kRsY3Y/9l8fpEbAKMsIhPiR
GxcBW/bAsVIfcY7r7TLYOZfS7rdACRvuTJn+lD1s0wAGj+kDfujJ6SsYS4HGo5SH
Vyr9I7/0hmY8RuHv+6Ljixen18U38QqEZjnRXF6xatEQimKXIvWsWdzNf45k9Muw
KDD0bLHWnZBwHmRcw8XSIVV3mE9P/+whEevZRmZYUXm51xG9R4RlXXJOVA5H8zMs
lhpgoO7OZbmDEyPGlm9EpdA+TOMhdmy8lkdS2sTqtX8Uo90=
-----END CERTIFICATE-----
