Certificate:
    Data:
        Version: 3 (0x2)
        Serial Number: 2 (0x2)
        Signature Algorithm: sha256WithRSAEncryption
        Issuer: CN=web-platform-tests
        Validity
            Not Before: Jun 30 23:12:48 2016 GMT
            Not After : Jul 30 23:12:48 2016 GMT
        Subject: CN=web-platform.test
        Subject Public Key Info:
            Public Key Algorithm: rsaEncryption
            RSA Public Key: (2048 bit)
                Modulus (2048 bit):
                    00:c8:73:1a:85:1e:8c:99:95:0c:02:d1:55:19:2b:
                    62:68:15:87:e9:11:63:3e:6f:09:4d:f1:01:1d:a3:
                    45:53:77:43:b3:3c:6b:89:2d:3a:6e:f0:7d:49:70:
                    4c:62:45:10:1c:1d:1a:32:0e:f1:d1:ec:8b:65:5e:
                    41:08:11:70:b0:1f:5d:ba:dc:83:32:c8:2d:41:17:
                    4c:e2:98:63:c3:e3:42:44:f2:2f:ea:69:d1:e5:1d:
                    03:de:23:f6:f9:e0:b0:d8:a3:94:fc:2f:50:73:f9:
                    75:9b:b2:14:68:d1:ca:35:39:2d:c4:bf:f6:16:2f:
                    5a:28:0c:f8:ea:5f:64:5d:43:39:5b:f3:28:91:a2:
                    8a:13:9d:ba:07:d7:24:3e:db:6f:f5:a4:d2:71:22:
                    9f:38:dc:6f:b1:64:80:f0:87:37:fc:37:05:3b:af:
                    b6:7d:b6:8c:50:2a:89:b2:62:ae:ad:c6:ae:ff:ee:
                    75:b1:58:6b:75:29:54:39:4b:75:44:f0:99:d7:2e:
                    87:01:6f:03:fd:20:df:73:ef:24:a2:95:45:19:f8:
                    4a:25:c6:52:bf:fc:8c:4a:cc:51:f1:90:33:2a:05:
                    c9:01:a5:1c:f2:9d:f5:24:e6:f4:d7:52:56:36:77:
                    aa:19:c5:b4:b6:04:d6:b5:8c:00:73:87:d1:fe:b1:
                    88:d7
                Exponent: 65537 (0x10001)
        X509v3 extensions:
            X509v3 Basic Constraints: 
                CA:FALSE
            X509v3 Subject Key Identifier: 
                54:0E:9F:4A:11:8B:7D:6B:BA:0B:FB:34:74:6F:0B:08:16:AF:E3:58
            X509v3 Authority Key Identifier: 
                keyid:BD:0F:27:1D:53:34:AB:7B:C2:13:9B:4F:26:B2:E4:78:4B:2F:01:A4

            X509v3 Key Usage: 
                Digital Signature, Non Repudiation, Key Encipherment
            X509v3 Extended Key Usage: 
                TLS Web Server Authentication
            X509v3 Subject Alternative Name: 
                DNS:web-platform.test, DNS:www.web-platform.test, DNS:xn--n8j6ds53lwwkrqhv28a.web-platform.test, DNS:xn--lve-6lad.web-platform.test, DNS:www2.web-platform.test, DNS:www1.web-platform.test
    Signature Algorithm: sha256WithRSAEncryption
        d6:e8:38:bc:df:c9:93:33:62:ee:28:98:0d:45:68:3f:73:d1:
        37:71:da:6b:af:94:75:8d:15:91:1f:cc:49:9d:7a:52:86:8e:
        a9:a3:ed:eb:e4:27:40:00:19:20:45:24:7e:33:ec:96:6e:20:
        1c:a8:3b:cb:89:76:3d:6e:3e:48:ad:ee:f4:06:55:76:73:7b:
        44:ff:58:76:ec:de:2d:61:1a:b6:e6:9e:d1:2e:f7:60:13:7f:
        f5:c0:fc:da:28:9f:07:9a:9a:f0:13:15:66:f9:65:bb:f3:0f:
        95:97:0a:d6:d9:f0:65:a4:a6:91:d9:f6:7b:d7:f8:aa:70:a3:
        5c:d4:85:fd:b5:d2:30:e7:4d:2d:a4:78:b3:eb:e0:6a:01:6d:
        cd:7d:d9:4c:e4:7c:f1:58:22:61:4a:b3:75:19:cb:df:cb:ea:
        ab:70:f2:2e:9a:11:e0:7f:13:14:c8:5f:e4:50:3d:f5:6a:e4:
        03:80:29:5f:99:f5:97:f9:49:fe:8e:71:5d:bf:f4:9e:14:7c:
        db:9d:c5:3c:0f:20:28:30:f8:66:b3:5c:06:af:50:b0:c8:db:
        3a:ec:f2:53:83:d8:77:58:f9:ec:a8:12:71:96:de:13:bc:88:
        26:e7:30:d6:35:e0:2e:33:c2:25:1a:87:64:9d:27:dd:50:22:
        c5:8d:2b:76
-----BEGIN CERTIFICATE-----
MIID2jCCAsKgAwIBAgIBAjANBgkqhkiG9w0BAQsFADAdMRswGQYDVQQDDBJ3ZWIt
cGxhdGZvcm0tdGVzdHMwHhcNMTYwNjMwMjMxMjQ4WhcNMTYwNzMwMjMxMjQ4WjAc
MRowGAYDVQQDDBF3ZWItcGxhdGZvcm0udGVzdDCCASIwDQYJKoZIhvcNAQEBBQAD
ggEPADCCAQoCggEBAMhzGoUejJmVDALRVRkrYmgVh+kRYz5vCU3xAR2jRVN3Q7M8
a4ktOm7wfUlwTGJFEBwdGjIO8dHsi2VeQQgRcLAfXbrcgzLILUEXTOKYY8PjQkTy
L+pp0eUdA94j9vngsNijlPwvUHP5dZuyFGjRyjU5LcS/9hYvWigM+OpfZF1DOVvz
KJGiihOdugfXJD7bb/Wk0nEinzjcb7FkgPCHN/w3BTuvtn22jFAqibJirq3Grv/u
dbFYa3UpVDlLdUTwmdcuhwFvA/0g33PvJKKVRRn4SiXGUr/8jErMUfGQMyoFyQGl
HPKd9STm9NdSVjZ3qhnFtLYE1rWMAHOH0f6xiNcCAwEAAaOCASQwggEgMAkGA1Ud
EwQCMAAwHQYDVR0OBBYEFFQOn0oRi31rugv7NHRvCwgWr+NYMB8GA1UdIwQYMBaA
FL0PJx1TNKt7whObTyay5HhLLwGkMAsGA1UdDwQEAwIF4DATBgNVHSUEDDAKBggr
BgEFBQcDATCBsAYDVR0RBIGoMIGlghF3ZWItcGxhdGZvcm0udGVzdIIVd3d3Lndl
Yi1wbGF0Zm9ybS50ZXN0gil4bi0tbjhqNmRzNTNsd3drcnFodjI4YS53ZWItcGxh
dGZvcm0udGVzdIIeeG4tLWx2ZS02bGFkLndlYi1wbGF0Zm9ybS50ZXN0ghZ3d3cy
LndlYi1wbGF0Zm9ybS50ZXN0ghZ3d3cxLndlYi1wbGF0Zm9ybS50ZXN0MA0GCSqG
SIb3DQEBCwUAA4IBAQDW6Di838mTM2LuKJgNRWg/c9E3cdprr5R1jRWRH8xJnXpS
ho6po+3r5CdAABkgRSR+M+yWbiAcqDvLiXY9bj5Ire70BlV2c3tE/1h27N4tYRq2
5p7RLvdgE3/1wPzaKJ8HmprwExVm+WW78w+VlwrW2fBlpKaR2fZ71/iqcKNc1IX9
tdIw500tpHiz6+BqAW3NfdlM5HzxWCJhSrN1Gcvfy+qrcPIumhHgfxMUyF/kUD31
auQDgClfmfWX+Un+jnFdv/SeFHzbncU8DyAoMPhms1wGr1CwyNs67PJTg9h3WPns
qBJxlt4TvIgm5zDWNeAuM8IlGodknSfdUCLFjSt2
-----END CERTIFICATE-----
